; Function Attrs: mustprogress uwtable
define noundef ptr @_ZN8MdiChild11qt_metacastEPKc(ptr noundef nonnull align 8 dereferenceable(153) %0, ptr noundef %1) unnamed_addr #0 align 2 {
  %.not = icmp eq ptr %1, null
  br i1 %.not, label %7, label %3

3:                                                ; preds = %2
  %4 = tail call i32 @strcmp(ptr noundef nonnull dereferenceable(1) %1, ptr noundef nonnull dereferenceable(9) getelementptr inbounds (%struct.qt_meta_stringdata_MdiChild_t, ptr @_ZL27qt_meta_stringdata_MdiChild, i64 0, i32 1)) #11
  %.not6 = icmp eq i32 %4, 0
  br i1 %.not6, label %7, label %5

5:                                                ; preds = %3
  %6 = tail call noundef ptr @_ZN9QTextEdit11qt_metacastEPKc(ptr noundef nonnull align 8 dereferenceable(40) %0, ptr noundef nonnull %1)
  br label %7

7:                                                ; preds = %3, %2, %5
  %.0 = phi ptr [ %6, %5 ], [ null, %2 ], [ %0, %3 ]
  ret ptr %.0
}